; Function Attrs: mustprogress uwtable
define dso_local void @_ZN4Luau14AnyTypeSummary5visitEPKNS_5ScopeEPNS_9AstStatIfEPKNS_6ModuleENS_7NotNullINS_12BuiltinTypesEEE(ptr noundef nonnull align 8 dereferenceable(288) %0, ptr noundef readnone captures(none) %1, ptr noundef readonly captures(none) %2, ptr noundef %3, ptr %4) local_unnamed_addr #6 align 2 personality ptr @__gxx_personality_v0 {
  %6 = getelementptr inbounds nuw i8, ptr %2, i64 40
  %7 = load ptr, ptr %6, align 8, !tbaa !36
  %.not = icmp eq ptr %7, null
  br i1 %.not, label %31, label %8

8:                                                ; preds = %5
  %9 = getelementptr inbounds nuw i8, ptr %7, i64 12
  %.sroa.03.0.copyload = load i64, ptr %9, align 4
  %.sroa.24.0..sroa_idx = getelementptr inbounds nuw i8, ptr %7, i64 20
  %.sroa.24.0.copyload = load i64, ptr %.sroa.24.0..sroa_idx, align 4
  %10 = tail call noundef ptr @_ZN4Luau14AnyTypeSummary18findInnerMostScopeENS_8LocationEPKNS_6ModuleE(ptr nonnull align 8 poison, i64 %.sroa.03.0.copyload, i64 %.sroa.24.0.copyload, ptr noundef %3)
  %11 = load ptr, ptr %6, align 8, !tbaa !36
  %12 = getelementptr inbounds nuw i8, ptr %0, i64 136
  %13 = load i32, ptr %12, align 8, !tbaa !4
  %14 = add nsw i32 %13, 1
  store i32 %14, ptr %12, align 8, !tbaa !4
  %15 = load i32, ptr @_ZN4FInt28LuauAnySummaryRecursionLimitE, align 8, !tbaa !19
  %.not.i = icmp slt i32 %14, %15
  br i1 %.not.i, label %16, label %_ZN4Luau14AnyTypeSummary5visitEPKNS_5ScopeEPNS_12AstStatBlockEPKNS_6ModuleENS_7NotNullINS_12BuiltinTypesEEE.exit

16:                                               ; preds = %8
  %17 = getelementptr inbounds nuw i8, ptr %11, i64 32
  %18 = load ptr, ptr %17, align 8, !tbaa !28
  %19 = getelementptr inbounds nuw i8, ptr %11, i64 40
  %20 = load i64, ptr %19, align 8, !tbaa !33
  %21 = getelementptr inbounds nuw ptr, ptr %18, i64 %20
  %.not1315.i = icmp eq i64 %20, 0
  br i1 %.not1315.i, label %_ZN4Luau14AnyTypeSummary5visitEPKNS_5ScopeEPNS_12AstStatBlockEPKNS_6ModuleENS_7NotNullINS_12BuiltinTypesEEE.exit, label %.lr.ph.i

.lr.ph.i:                                         ; preds = %16, %23
  %.016.i = phi ptr [ %24, %23 ], [ %18, %16 ]
  %22 = load ptr, ptr %.016.i, align 8, !tbaa !34
  invoke void @_ZN4Luau14AnyTypeSummary5visitEPKNS_5ScopeEPNS_7AstStatEPKNS_6ModuleENS_7NotNullINS_12BuiltinTypesEEE(ptr noundef nonnull align 8 dereferenceable(288) %0, ptr noundef readnone %10, ptr noundef %22, ptr noundef nonnull %3, ptr %4)
          to label %23 unwind label %25

23:                                               ; preds = %.lr.ph.i
  %24 = getelementptr inbounds nuw i8, ptr %.016.i, i64 8
  %.not13.i = icmp eq ptr %24, %21
  br i1 %.not13.i, label %.loopexit.loopexit.i, label %.lr.ph.i

25:                                               ; preds = %.lr.ph.i
  %26 = landingpad { ptr, i32 }
          cleanup
  %27 = load i32, ptr %12, align 8, !tbaa !4
  %28 = add nsw i32 %27, -1
  store i32 %28, ptr %12, align 8, !tbaa !4
  resume { ptr, i32 } %26

.loopexit.loopexit.i:                             ; preds = %23
  %.pre.i = load i32, ptr %12, align 8, !tbaa !4
  %29 = add nsw i32 %.pre.i, -1
  br label %_ZN4Luau14AnyTypeSummary5visitEPKNS_5ScopeEPNS_12AstStatBlockEPKNS_6ModuleENS_7NotNullINS_12BuiltinTypesEEE.exit

_ZN4Luau14AnyTypeSummary5visitEPKNS_5ScopeEPNS_12AstStatBlockEPKNS_6ModuleENS_7NotNullINS_12BuiltinTypesEEE.exit: ; preds = %8, %16, %.loopexit.loopexit.i
  %30 = phi i32 [ %29, %.loopexit.loopexit.i ], [ %13, %16 ], [ %13, %8 ]
  store i32 %30, ptr %12, align 8, !tbaa !4
  br label %31

31:                                               ; preds = %_ZN4Luau14AnyTypeSummary5visitEPKNS_5ScopeEPNS_12AstStatBlockEPKNS_6ModuleENS_7NotNullINS_12BuiltinTypesEEE.exit, %5
  %32 = getelementptr inbounds nuw i8, ptr %2, i64 48
  %33 = load ptr, ptr %32, align 8, !tbaa !45
  %.not19 = icmp eq ptr %33, null
  br i1 %.not19, label %38, label %34

34:                                               ; preds = %31
  %35 = getelementptr inbounds nuw i8, ptr %33, i64 12
  %.sroa.01.0.copyload = load i64, ptr %35, align 4
  %.sroa.2.0..sroa_idx = getelementptr inbounds nuw i8, ptr %33, i64 20
  %.sroa.2.0.copyload = load i64, ptr %.sroa.2.0..sroa_idx, align 4
  %36 = tail call noundef ptr @_ZN4Luau14AnyTypeSummary18findInnerMostScopeENS_8LocationEPKNS_6ModuleE(ptr nonnull align 8 poison, i64 %.sroa.01.0.copyload, i64 %.sroa.2.0.copyload, ptr noundef %3)
  %37 = load ptr, ptr %32, align 8, !tbaa !45
  tail call void @_ZN4Luau14AnyTypeSummary5visitEPKNS_5ScopeEPNS_7AstStatEPKNS_6ModuleENS_7NotNullINS_12BuiltinTypesEEE(ptr noundef nonnull align 8 dereferenceable(288) %0, ptr noundef %36, ptr noundef %37, ptr noundef nonnull %3, ptr %4)
  br label %38

38:                                               ; preds = %34, %31
  ret void
}